target datalayout = "e-m:e-p270:32:32-p271:32:32-p272:64:64-i64:64-i128:128-f80:128-n8:16:32:64-S128"
target triple = "x86_64-pc-linux-gnu"

; Function Attrs: inlinehint nounwind uwtable
define internal zeroext i1 @strip_suffix_mem(ptr noundef %0, ptr noundef %1, ptr noundef %2) #2 {
  %4 = alloca i1, align 1
  %5 = alloca ptr, align 8
  %6 = alloca ptr, align 8
  %7 = alloca ptr, align 8
  %8 = alloca i64, align 8
  %9 = alloca i32, align 4
  store ptr %0, ptr %5, align 8, !tbaa !4
  store ptr %1, ptr %6, align 8, !tbaa !124
  store ptr %2, ptr %7, align 8, !tbaa !4
  call void @llvm.lifetime.start.p0(i64 8, ptr %8) #13
  %10 = load ptr, ptr %7, align 8, !tbaa !4
  %11 = call i64 @strlen(ptr noundef %10) #14
  store i64 %11, ptr %8, align 8, !tbaa !16
  %12 = load ptr, ptr %6, align 8, !tbaa !124
  %13 = load i64, ptr %12, align 8, !tbaa !16
  %14 = load i64, ptr %8, align 8, !tbaa !16
  %15 = icmp ult i64 %13, %14
  br i1 %15, label %27, label %16

16:                                               ; preds = %3
  %17 = load ptr, ptr %5, align 8, !tbaa !4
  %18 = load ptr, ptr %6, align 8, !tbaa !124
  %19 = load i64, ptr %18, align 8, !tbaa !16
  %20 = load i64, ptr %8, align 8, !tbaa !16
  %21 = sub i64 %19, %20
  %22 = getelementptr inbounds nuw i8, ptr %17, i64 %21
  %23 = load ptr, ptr %7, align 8, !tbaa !4
  %24 = load i64, ptr %8, align 8, !tbaa !16
  %25 = call i32 @memcmp(ptr noundef %22, ptr noundef %23, i64 noundef %24) #14
  %26 = icmp ne i32 %25, 0
  br i1 %26, label %27, label %28

27:                                               ; preds = %16, %3
  store i1 false, ptr %4, align 1
  store i32 1, ptr %9, align 4
  br label %33

28:                                               ; preds = %16
  %29 = load i64, ptr %8, align 8, !tbaa !16
  %30 = load ptr, ptr %6, align 8, !tbaa !124
  %31 = load i64, ptr %30, align 8, !tbaa !16
  %32 = sub i64 %31, %29
  store i64 %32, ptr %30, align 8, !tbaa !16
  store i1 true, ptr %4, align 1
  store i32 1, ptr %9, align 4
  br label %33

33:                                               ; preds = %28, %27
  call void @llvm.lifetime.end.p0(i64 8, ptr %8) #13
  %34 = load i1, ptr %4, align 1
  ret i1 %34
}

; Function Attrs: inlinehint nounwind uwtable
define internal zeroext i1 @strip_suffix(ptr noundef %0, ptr noundef %1, ptr noundef %2) #2 {
  %4 = alloca ptr, align 8
  %5 = alloca ptr, align 8
  %6 = alloca ptr, align 8
  store ptr %0, ptr %4, align 8, !tbaa !4
  store ptr %1, ptr %5, align 8, !tbaa !4
  store ptr %2, ptr %6, align 8, !tbaa !124
  %7 = load ptr, ptr %4, align 8, !tbaa !4
  %8 = call i64 @strlen(ptr noundef %7) #14
  %9 = load ptr, ptr %6, align 8, !tbaa !124
  store i64 %8, ptr %9, align 8, !tbaa !16
  %10 = load ptr, ptr %4, align 8, !tbaa !4
  %11 = load ptr, ptr %6, align 8, !tbaa !124
  %12 = load ptr, ptr %5, align 8, !tbaa !4
  %13 = call zeroext i1 @strip_suffix_mem(ptr noundef %10, ptr noundef %11, ptr noundef %12)
  ret i1 %13
}

; Function Attrs: inlinehint nounwind uwtable
define internal i32 @ends_with(ptr noundef %0, ptr noundef %1) #2 {
  %3 = alloca ptr, align 8
  %4 = alloca ptr, align 8
  %5 = alloca i64, align 8
  store ptr %0, ptr %3, align 8, !tbaa !4
  store ptr %1, ptr %4, align 8, !tbaa !4
  call void @llvm.lifetime.start.p0(i64 8, ptr %5) #13
  %6 = load ptr, ptr %3, align 8, !tbaa !4
  %7 = load ptr, ptr %4, align 8, !tbaa !4
  %8 = call zeroext i1 @strip_suffix(ptr noundef %6, ptr noundef %7, ptr noundef %5)
  %9 = zext i1 %8 to i32
  call void @llvm.lifetime.end.p0(i64 8, ptr %5) #13
  ret i32 %9
}