; Function Attrs: inlinehint mustprogress nofree nounwind willreturn memory(argmem: read) uwtable
define internal fastcc range(i32 0, 2) i32 @ends_with(ptr noundef nonnull readonly captures(none) %0) unnamed_addr #18 {
  %2 = tail call i64 @strlen(ptr noundef nonnull readonly dereferenceable(1) %0) #24
  %3 = icmp ult i64 %2, 2
  br i1 %3, label %strip_suffix.exit, label %4

4:                                                ; preds = %1
  %5 = getelementptr i8, ptr %0, i64 %2
  %6 = getelementptr i8, ptr %5, i64 -2
  %bcmp.i.i = tail call i32 @bcmp(ptr noundef nonnull readonly dereferenceable(2) %6, ptr noundef nonnull dereferenceable(2) @.str.119, i64 2)
  %.not.i.i = icmp eq i32 %bcmp.i.i, 0
  %7 = zext i1 %.not.i.i to i32
  br label %strip_suffix.exit

strip_suffix.exit:                                ; preds = %4, %1
  %.0.i.i = phi i32 [ 0, %1 ], [ %7, %4 ]
  ret i32 %.0.i.i
}